; Function Attrs: nofree norecurse nosync nounwind memory(read, inaccessiblemem: none) uwtable
define range(i32 0, 2) i32 @Abc_NtkLatchIsSelfFeed(ptr noundef readonly %0) local_unnamed_addr #0 {
  %.val11 = load ptr, ptr %0, align 8, !tbaa !3
  %2 = getelementptr i8, ptr %0, i64 32
  %.val12 = load ptr, ptr %2, align 8, !tbaa !13
  %3 = getelementptr i8, ptr %.val11, i64 32
  %.val11.val = load ptr, ptr %3, align 8, !tbaa !14
  %.val12.val = load i32, ptr %.val12, align 4, !tbaa !28
  %4 = getelementptr i8, ptr %.val11.val, i64 8
  %.val11.val.val = load ptr, ptr %4, align 8, !tbaa !29
  %5 = sext i32 %.val12.val to i64
  %6 = getelementptr inbounds ptr, ptr %.val11.val.val, i64 %5
  %7 = load ptr, ptr %6, align 8, !tbaa !31
  %.val9 = load ptr, ptr %7, align 8, !tbaa !3
  %8 = getelementptr i8, ptr %7, i64 32
  %.val10 = load ptr, ptr %8, align 8, !tbaa !13
  %9 = getelementptr i8, ptr %.val9, i64 32
  %.val9.val = load ptr, ptr %9, align 8, !tbaa !14
  %.val10.val = load i32, ptr %.val10, align 4, !tbaa !28
  %10 = getelementptr i8, ptr %.val9.val, i64 8
  %.val9.val.val = load ptr, ptr %10, align 8, !tbaa !29
  %11 = sext i32 %.val10.val to i64
  %12 = getelementptr inbounds ptr, ptr %.val9.val.val, i64 %11
  %13 = load ptr, ptr %12, align 8, !tbaa !31
  %14 = getelementptr i8, ptr %13, i64 20
  %.val13 = load i32, ptr %14, align 4
  %15 = and i32 %.val13, 15
  %.not = icmp eq i32 %15, 5
  br i1 %.not, label %16, label %Abc_NtkLatchIsSelfFeed_rec.exit

16:                                               ; preds = %1
  %.val7 = load ptr, ptr %13, align 8, !tbaa !3
  %17 = getelementptr i8, ptr %13, i64 32
  %.val8 = load ptr, ptr %17, align 8, !tbaa !13
  %18 = getelementptr i8, ptr %.val7, i64 32
  %.val7.val = load ptr, ptr %18, align 8, !tbaa !14
  %.val8.val = load i32, ptr %.val8, align 4, !tbaa !28
  %19 = getelementptr i8, ptr %.val7.val, i64 8
  %.val7.val.val = load ptr, ptr %19, align 8, !tbaa !29
  %20 = sext i32 %.val8.val to i64
  %21 = getelementptr inbounds ptr, ptr %.val7.val.val, i64 %20
  %22 = load ptr, ptr %21, align 8, !tbaa !31
  %23 = getelementptr i8, ptr %22, i64 20
  %.val14 = load i32, ptr %23, align 4
  %24 = and i32 %.val14, 15
  %.not15 = icmp eq i32 %24, 8
  br i1 %.not15, label %tailrecurse.i, label %Abc_NtkLatchIsSelfFeed_rec.exit

tailrecurse.i:                                    ; preds = %16, %41
  %.tr.i = phi ptr [ %47, %41 ], [ %22, %16 ]
  %.tr19.i = phi ptr [ %.tr.i, %41 ], [ %0, %16 ]
  %25 = icmp eq ptr %.tr.i, %.tr19.i
  br i1 %25, label %Abc_NtkLatchIsSelfFeed_rec.exit, label %26

26:                                               ; preds = %tailrecurse.i
  %.val.i = load ptr, ptr %.tr.i, align 8, !tbaa !3
  %27 = getelementptr i8, ptr %.tr.i, i64 32
  %.val9.i = load ptr, ptr %27, align 8, !tbaa !13
  %28 = getelementptr i8, ptr %.val.i, i64 32
  %.val.val.i = load ptr, ptr %28, align 8, !tbaa !14
  %.val9.val.i = load i32, ptr %.val9.i, align 4, !tbaa !28
  %29 = getelementptr i8, ptr %.val.val.i, i64 8
  %.val.val.val.i = load ptr, ptr %29, align 8, !tbaa !29
  %30 = sext i32 %.val9.val.i to i64
  %31 = getelementptr inbounds ptr, ptr %.val.val.val.i, i64 %30
  %32 = load ptr, ptr %31, align 8, !tbaa !31
  %.val10.i = load ptr, ptr %32, align 8, !tbaa !3
  %33 = getelementptr i8, ptr %32, i64 32
  %.val11.i = load ptr, ptr %33, align 8, !tbaa !13
  %34 = getelementptr i8, ptr %.val10.i, i64 32
  %.val10.val.i = load ptr, ptr %34, align 8, !tbaa !14
  %.val11.val.i = load i32, ptr %.val11.i, align 4, !tbaa !28
  %35 = getelementptr i8, ptr %.val10.val.i, i64 8
  %.val10.val.val.i = load ptr, ptr %35, align 8, !tbaa !29
  %36 = sext i32 %.val11.val.i to i64
  %37 = getelementptr inbounds ptr, ptr %.val10.val.val.i, i64 %36
  %38 = load ptr, ptr %37, align 8, !tbaa !31
  %39 = getelementptr i8, ptr %38, i64 20
  %.val16.i = load i32, ptr %39, align 4
  %40 = and i32 %.val16.i, 15
  %.not.i = icmp eq i32 %40, 5
  br i1 %.not.i, label %41, label %Abc_NtkLatchIsSelfFeed_rec.exit

41:                                               ; preds = %26
  %.val12.i = load ptr, ptr %38, align 8, !tbaa !3
  %42 = getelementptr i8, ptr %38, i64 32
  %.val13.i = load ptr, ptr %42, align 8, !tbaa !13
  %43 = getelementptr i8, ptr %.val12.i, i64 32
  %.val12.val.i = load ptr, ptr %43, align 8, !tbaa !14
  %.val13.val.i = load i32, ptr %.val13.i, align 4, !tbaa !28
  %44 = getelementptr i8, ptr %.val12.val.i, i64 8
  %.val12.val.val.i = load ptr, ptr %44, align 8, !tbaa !29
  %45 = sext i32 %.val13.val.i to i64
  %46 = getelementptr inbounds ptr, ptr %.val12.val.val.i, i64 %45
  %47 = load ptr, ptr %46, align 8, !tbaa !31
  %48 = getelementptr i8, ptr %47, i64 20
  %.val17.i = load i32, ptr %48, align 4
  %49 = and i32 %.val17.i, 15
  %.not18.i = icmp eq i32 %49, 8
  br i1 %.not18.i, label %tailrecurse.i, label %Abc_NtkLatchIsSelfFeed_rec.exit

Abc_NtkLatchIsSelfFeed_rec.exit:                  ; preds = %41, %26, %tailrecurse.i, %1, %16
  %.0 = phi i32 [ 0, %16 ], [ 0, %1 ], [ 0, %26 ], [ 0, %41 ], [ 1, %tailrecurse.i ]
  ret i32 %.0
}